target datalayout = "e-m:e-p270:32:32-p271:32:32-p272:64:64-i64:64-i128:128-f80:128-n8:16:32:64-S128"
target triple = "x86_64-pc-linux-gnu"

%"class.ozz::animation::Animation" = type { float, i32, ptr, ptr, %"struct.ozz::span", %"struct.ozz::animation::Animation::TKeyframesCtrl", %"struct.ozz::animation::Animation::TKeyframesCtrl", %"struct.ozz::animation::Animation::TKeyframesCtrl", %"struct.ozz::span.3", %"struct.ozz::span.4", %"struct.ozz::span.3" }
%"struct.ozz::span" = type { ptr, i64 }
%"struct.ozz::animation::Animation::TKeyframesCtrl" = type <{ %"struct.ozz::span.0", %"struct.ozz::span.1", %"struct.ozz::span.0", %"struct.ozz::span.2", float, [4 x i8] }>
%"struct.ozz::span.1" = type { ptr, i64 }
%"struct.ozz::span.0" = type { ptr, i64 }
%"struct.ozz::span.2" = type { ptr, i64 }
%"struct.ozz::span.4" = type { ptr, i64 }
%"struct.ozz::span.3" = type { ptr, i64 }

; Function Attrs: mustprogress uwtable
define dso_local void @_ZN3ozz9animation9Animation10DeallocateEv(ptr noundef nonnull align 8 dereferenceable(304) %0) #4 align 2 {
  %2 = alloca ptr, align 8
  store ptr %0, ptr %2, align 8, !tbaa !4
  %3 = load ptr, ptr %2, align 8
  %4 = call noundef ptr @_ZN3ozz6memory17default_allocatorEv()
  %5 = getelementptr inbounds nuw %"class.ozz::animation::Animation", ptr %3, i32 0, i32 2
  %6 = load ptr, ptr %5, align 8, !tbaa !28
  %7 = load ptr, ptr %4, align 8, !tbaa !63
  %8 = getelementptr inbounds ptr, ptr %7, i64 3
  %9 = load ptr, ptr %8, align 8
  call void %9(ptr noundef nonnull align 8 dereferenceable(8) %4, ptr noundef %6)
  %10 = getelementptr inbounds nuw %"class.ozz::animation::Animation", ptr %3, i32 0, i32 2
  store ptr null, ptr %10, align 8, !tbaa !28
  ret void
}