; Function Attrs: mustprogress uwtable
define dso_local void @_ZN3ozz9animation9Animation10DeallocateEv(ptr noundef nonnull align 8 captures(none) dereferenceable(304) %0) local_unnamed_addr #5 align 2 {
  %2 = tail call noundef ptr @_ZN3ozz6memory17default_allocatorEv()
  %3 = getelementptr inbounds nuw i8, ptr %0, i64 8
  %4 = load ptr, ptr %3, align 8, !tbaa !46
  %5 = load ptr, ptr %2, align 8, !tbaa !48
  %6 = getelementptr inbounds nuw i8, ptr %5, i64 24
  %7 = load ptr, ptr %6, align 8
  tail call void %7(ptr noundef nonnull align 8 dereferenceable(8) %2, ptr noundef %4)
  store ptr null, ptr %3, align 8, !tbaa !46
  ret void
}